target datalayout = "e-m:e-p270:32:32-p271:32:32-p272:64:64-i64:64-i128:128-f80:128-n8:16:32:64-S128"
target triple = "x86_64-pc-linux-gnu"

; Function Attrs: inlinehint nounwind sspstrong willreturn memory(none) uwtable
define internal i64 @rbimpl_fix2long_by_idiv(i64 noundef %0) #4 {
  %2 = alloca i64, align 8
  %3 = alloca i64, align 8
  %4 = alloca i64, align 8
  %5 = alloca i64, align 8
  store i64 %0, ptr %2, align 8, !tbaa !7
  call void @llvm.lifetime.start.p0(i64 8, ptr %3) #25
  %6 = load i64, ptr %2, align 8, !tbaa !7
  %7 = sub i64 %6, 1
  store i64 %7, ptr %3, align 8, !tbaa !7
  call void @llvm.lifetime.start.p0(i64 8, ptr %4) #25
  %8 = load i64, ptr %3, align 8, !tbaa !7
  %9 = sdiv i64 %8, 2
  store i64 %9, ptr %4, align 8, !tbaa !7
  call void @llvm.lifetime.start.p0(i64 8, ptr %5) #25
  %10 = load i64, ptr %4, align 8, !tbaa !7
  store i64 %10, ptr %5, align 8, !tbaa !7
  %11 = load i64, ptr %5, align 8, !tbaa !7
  call void @llvm.lifetime.end.p0(i64 8, ptr %5) #25
  call void @llvm.lifetime.end.p0(i64 8, ptr %4) #25
  call void @llvm.lifetime.end.p0(i64 8, ptr %3) #25
  ret i64 %11
}

; Function Attrs: inlinehint nounwind sspstrong willreturn memory(none) uwtable
define internal i64 @rbimpl_fix2long_by_shift(i64 noundef %0) #4 {
  %2 = alloca i64, align 8
  %3 = alloca i64, align 8
  %4 = alloca i64, align 8
  %5 = alloca i64, align 8
  store i64 %0, ptr %2, align 8, !tbaa !7
  call void @llvm.lifetime.start.p0(i64 8, ptr %3) #25
  %6 = load i64, ptr %2, align 8, !tbaa !7
  store i64 %6, ptr %3, align 8, !tbaa !7
  call void @llvm.lifetime.start.p0(i64 8, ptr %4) #25
  %7 = load i64, ptr %3, align 8, !tbaa !7
  %8 = ashr i64 %7, 1
  store i64 %8, ptr %4, align 8, !tbaa !7
  call void @llvm.lifetime.start.p0(i64 8, ptr %5) #25
  %9 = load i64, ptr %4, align 8, !tbaa !7
  store i64 %9, ptr %5, align 8, !tbaa !7
  %10 = load i64, ptr %5, align 8, !tbaa !7
  call void @llvm.lifetime.end.p0(i64 8, ptr %5) #25
  call void @llvm.lifetime.end.p0(i64 8, ptr %4) #25
  call void @llvm.lifetime.end.p0(i64 8, ptr %3) #25
  ret i64 %10
}

; Function Attrs: inlinehint nounwind sspstrong willreturn memory(none) uwtable
define internal zeroext i1 @rbimpl_right_shift_is_arithmetic_p() #4 {
  ret i1 true
}

; Function Attrs: nounwind sspstrong uwtable
define internal void @check_int(i64 noundef %0) #2 {
  %2 = alloca i64, align 8
  store i64 %0, ptr %2, align 8, !tbaa !7
  %3 = load i64, ptr %2, align 8, !tbaa !7
  %4 = trunc i64 %3 to i32
  %5 = sext i32 %4 to i64
  %6 = load i64, ptr %2, align 8, !tbaa !7
  %7 = icmp ne i64 %5, %6
  br i1 %7, label %8, label %10

8:                                                ; preds = %1
  %9 = load i64, ptr %2, align 8, !tbaa !7
  call void @rb_out_of_int(i64 noundef %9) #29
  unreachable

10:                                               ; preds = %1
  ret void
}

; Function Attrs: inlinehint nounwind sspstrong willreturn memory(none) uwtable
define internal i64 @rb_fix2long(i64 noundef %0) #4 {
  %2 = alloca i64, align 8
  %3 = alloca i64, align 8
  store i64 %0, ptr %3, align 8, !tbaa !7
  %4 = call zeroext i1 @rbimpl_right_shift_is_arithmetic_p() #26
  br i1 %4, label %5, label %8

5:                                                ; preds = %1
  %6 = load i64, ptr %3, align 8, !tbaa !7
  %7 = call i64 @rbimpl_fix2long_by_shift(i64 noundef %6) #26
  store i64 %7, ptr %2, align 8
  br label %11

8:                                                ; preds = %1
  %9 = load i64, ptr %3, align 8, !tbaa !7
  %10 = call i64 @rbimpl_fix2long_by_idiv(i64 noundef %9) #26
  store i64 %10, ptr %2, align 8
  br label %11

11:                                               ; preds = %8, %5
  %12 = load i64, ptr %2, align 8
  ret i64 %12
}

; Function Attrs: nounwind sspstrong uwtable
define dso_local i64 @rb_num2int(i64 noundef %0) #2 {
  %2 = alloca i64, align 8
  %3 = alloca i64, align 8
  store i64 %0, ptr %2, align 8, !tbaa !7
  call void @llvm.lifetime.start.p0(i64 8, ptr %3) #25
  %4 = load i64, ptr %2, align 8, !tbaa !7
  %5 = call i64 @rb_num2long(i64 noundef %4)
  store i64 %5, ptr %3, align 8, !tbaa !7
  %6 = load i64, ptr %3, align 8, !tbaa !7
  call void @check_int(i64 noundef %6)
  %7 = load i64, ptr %3, align 8, !tbaa !7
  call void @llvm.lifetime.end.p0(i64 8, ptr %3) #25
  ret i64 %7
}

; Function Attrs: nounwind sspstrong uwtable
define dso_local i64 @rb_fix2int(i64 noundef %0) #2 {
  %2 = alloca i64, align 8
  %3 = alloca i64, align 8
  store i64 %0, ptr %2, align 8, !tbaa !7
  call void @llvm.lifetime.start.p0(i64 8, ptr %3) #25
  %4 = load i64, ptr %2, align 8, !tbaa !7
  %5 = call zeroext i1 @RB_FIXNUM_P(i64 noundef %4) #26
  br i1 %5, label %6, label %9

6:                                                ; preds = %1
  %7 = load i64, ptr %2, align 8, !tbaa !7
  %8 = call i64 @rb_fix2long(i64 noundef %7) #26
  br label %12

9:                                                ; preds = %1
  %10 = load i64, ptr %2, align 8, !tbaa !7
  %11 = call i64 @rb_num2long(i64 noundef %10)
  br label %12

12:                                               ; preds = %9, %6
  %13 = phi i64 [ %8, %6 ], [ %11, %9 ]
  store i64 %13, ptr %3, align 8, !tbaa !7
  %14 = load i64, ptr %3, align 8, !tbaa !7
  call void @check_int(i64 noundef %14)
  %15 = load i64, ptr %3, align 8, !tbaa !7
  call void @llvm.lifetime.end.p0(i64 8, ptr %3) #25
  ret i64 %15
}

; Function Attrs: inlinehint nounwind sspstrong willreturn memory(none) uwtable
define internal zeroext i1 @RB_FIXNUM_P(i64 noundef %0) #4 {
  %2 = alloca i64, align 8
  store i64 %0, ptr %2, align 8, !tbaa !7
  %3 = load i64, ptr %2, align 8, !tbaa !7
  %4 = and i64 %3, 1
  %5 = icmp ne i64 %4, 0
  ret i1 %5
}

; Function Attrs: inlinehint nounwind sspstrong uwtable
define internal i32 @rb_num2int_inline(i64 noundef %0) #8 {
  %2 = alloca i64, align 8
  %3 = alloca i64, align 8
  store i64 %0, ptr %2, align 8, !tbaa !7
  call void @llvm.lifetime.start.p0(i64 8, ptr %3) #25
  %4 = load i64, ptr %2, align 8, !tbaa !7
  %5 = call zeroext i1 @RB_FIXNUM_P(i64 noundef %4) #26
  br i1 %5, label %6, label %9

6:                                                ; preds = %1
  %7 = load i64, ptr %2, align 8, !tbaa !7
  %8 = call i64 @rb_fix2int(i64 noundef %7)
  store i64 %8, ptr %3, align 8, !tbaa !7
  br label %12

9:                                                ; preds = %1
  %10 = load i64, ptr %2, align 8, !tbaa !7
  %11 = call i64 @rb_num2int(i64 noundef %10)
  store i64 %11, ptr %3, align 8, !tbaa !7
  br label %12

12:                                               ; preds = %9, %6
  %13 = load i64, ptr %3, align 8, !tbaa !7
  %14 = trunc i64 %13 to i32
  call void @llvm.lifetime.end.p0(i64 8, ptr %3) #25
  ret i32 %14
}

; Function Attrs: inlinehint nounwind sspstrong uwtable
define internal i32 @rb_check_arity(i32 noundef %0, i32 noundef %1, i32 noundef %2) #8 {
  %4 = alloca i32, align 4
  %5 = alloca i32, align 4
  %6 = alloca i32, align 4
  store i32 %0, ptr %4, align 4, !tbaa !14
  store i32 %1, ptr %5, align 4, !tbaa !14
  store i32 %2, ptr %6, align 4, !tbaa !14
  %7 = load i32, ptr %4, align 4, !tbaa !14
  %8 = load i32, ptr %5, align 4, !tbaa !14
  %9 = icmp slt i32 %7, %8
  br i1 %9, label %17, label %10

10:                                               ; preds = %3
  %11 = load i32, ptr %6, align 4, !tbaa !14
  %12 = icmp ne i32 %11, -1
  br i1 %12, label %13, label %21

13:                                               ; preds = %10
  %14 = load i32, ptr %4, align 4, !tbaa !14
  %15 = load i32, ptr %6, align 4, !tbaa !14
  %16 = icmp sgt i32 %14, %15
  br i1 %16, label %17, label %21

17:                                               ; preds = %13, %3
  %18 = load i32, ptr %4, align 4, !tbaa !14
  %19 = load i32, ptr %5, align 4, !tbaa !14
  %20 = load i32, ptr %6, align 4, !tbaa !14
  call void @rb_error_arity(i32 noundef %18, i32 noundef %19, i32 noundef %20) #24
  unreachable

21:                                               ; preds = %13, %10
  %22 = load i32, ptr %4, align 4, !tbaa !14
  ret i32 %22
}

; Function Attrs: nounwind sspstrong uwtable
define internal i64 @int_floor(i32 noundef %0, ptr noundef %1, i64 noundef %2) #2 {
  %4 = alloca i64, align 8
  %5 = alloca i32, align 4
  %6 = alloca ptr, align 8
  %7 = alloca i64, align 8
  %8 = alloca i32, align 4
  %9 = alloca i32, align 4
  store i32 %0, ptr %5, align 4, !tbaa !14
  store ptr %1, ptr %6, align 8, !tbaa !22
  store i64 %2, ptr %7, align 8, !tbaa !7
  call void @llvm.lifetime.start.p0(i64 4, ptr %8) #25
  %10 = load i32, ptr %5, align 4, !tbaa !14
  %11 = call i32 @rb_check_arity(i32 noundef %10, i32 noundef 0, i32 noundef 1)
  %12 = icmp ne i32 %11, 0
  br i1 %12, label %15, label %13

13:                                               ; preds = %3
  %14 = load i64, ptr %7, align 8, !tbaa !7
  store i64 %14, ptr %4, align 8
  store i32 1, ptr %9, align 4
  br label %28

15:                                               ; preds = %3
  %16 = load ptr, ptr %6, align 8, !tbaa !22
  %17 = getelementptr i64, ptr %16, i64 0
  %18 = load i64, ptr %17, align 8, !tbaa !7
  %19 = call i32 @rb_num2int_inline(i64 noundef %18)
  store i32 %19, ptr %8, align 4, !tbaa !14
  %20 = load i32, ptr %8, align 4, !tbaa !14
  %21 = icmp sge i32 %20, 0
  br i1 %21, label %22, label %24

22:                                               ; preds = %15
  %23 = load i64, ptr %7, align 8, !tbaa !7
  store i64 %23, ptr %4, align 8
  store i32 1, ptr %9, align 4
  br label %28

24:                                               ; preds = %15
  %25 = load i64, ptr %7, align 8, !tbaa !7
  %26 = load i32, ptr %8, align 4, !tbaa !14
  %27 = call i64 @rb_int_floor(i64 noundef %25, i32 noundef %26)
  store i64 %27, ptr %4, align 8
  store i32 1, ptr %9, align 4
  br label %28

28:                                               ; preds = %24, %22, %13
  call void @llvm.lifetime.end.p0(i64 4, ptr %8) #25
  %29 = load i64, ptr %4, align 8
  ret i64 %29
}